; ModuleID = 'source-C-CXX/44/2801.c'
source_filename = "source-C-CXX/44/2801.c"
target datalayout = "e-m:e-p270:32:32-p271:32:32-p272:64:64-i64:64-f80:128-n8:16:32:64-S128"
target triple = "x86_64-pc-linux-gnu"

@.str = private unnamed_addr constant [3 x i8] c"%s\00", align 1
@.str.1 = private unnamed_addr constant [3 x i8] c"%d\00", align 1

; Function Attrs: nofree nounwind sspstrong uwtable
define dso_local i32 @main() local_unnamed_addr #0 {
  %1 = alloca [50 x i8], align 16
  %2 = alloca [50 x i8], align 16
  %3 = getelementptr inbounds [50 x i8], [50 x i8]* %1, i64 0, i64 0
  call void @llvm.lifetime.start.p0i8(i64 50, i8* nonnull %3) #4
  %4 = getelementptr inbounds [50 x i8], [50 x i8]* %2, i64 0, i64 0
  call void @llvm.lifetime.start.p0i8(i64 50, i8* nonnull %4) #4
  %5 = call i32 (i8*, ...) @__isoc99_scanf(i8* getelementptr inbounds ([3 x i8], [3 x i8]* @.str, i64 0, i64 0), i8* nonnull %3)
  %6 = call i64 @strlen(i8* noundef nonnull %3) #5
  %7 = trunc i64 %6 to i32
  %8 = call i32 (i8*, ...) @__isoc99_scanf(i8* getelementptr inbounds ([3 x i8], [3 x i8]* @.str, i64 0, i64 0), i8* nonnull %4)
  %9 = call i64 @strlen(i8* noundef nonnull %4) #5
  %10 = trunc i64 %9 to i32
  %11 = load i8, i8* %3, align 16
  %12 = icmp sgt i32 %10, 0
  br i1 %12, label %13, label %56

13:                                               ; preds = %0
  %14 = icmp sgt i32 %7, 1
  br i1 %14, label %15, label %40

15:                                               ; preds = %13
  %16 = and i64 %9, 4294967295
  %17 = and i64 %6, 4294967295
  br label %18

18:                                               ; preds = %15, %34
  %19 = phi i64 [ 0, %15 ], [ %35, %34 ]
  %20 = getelementptr inbounds [50 x i8], [50 x i8]* %2, i64 0, i64 %19
  %21 = load i8, i8* %20, align 1, !tbaa !5
  %22 = icmp eq i8 %21, %11
  br i1 %22, label %23, label %34

23:                                               ; preds = %18, %37
  %24 = phi i64 [ %38, %37 ], [ 1, %18 ]
  %25 = add nuw nsw i64 %24, %19
  %26 = getelementptr inbounds [50 x i8], [50 x i8]* %2, i64 0, i64 %25
  %27 = load i8, i8* %26, align 1, !tbaa !5
  %28 = getelementptr inbounds [50 x i8], [50 x i8]* %1, i64 0, i64 %24
  %29 = load i8, i8* %28, align 1, !tbaa !5
  %30 = icmp eq i8 %27, %29
  br i1 %30, label %37, label %31

31:                                               ; preds = %23
  %32 = trunc i64 %24 to i32
  %33 = icmp eq i32 %32, %7
  br i1 %33, label %52, label %34

34:                                               ; preds = %31, %18
  %35 = add nuw nsw i64 %19, 1
  %36 = icmp eq i64 %35, %16
  br i1 %36, label %56, label %18, !llvm.loop !8

37:                                               ; preds = %23
  %38 = add nuw nsw i64 %24, 1
  %39 = icmp eq i64 %38, %17
  br i1 %39, label %52, label %23, !llvm.loop !10

40:                                               ; preds = %13
  %41 = icmp eq i32 %7, 1
  br i1 %41, label %42, label %56

42:                                               ; preds = %40
  %43 = and i64 %9, 4294967295
  br label %44

44:                                               ; preds = %42, %49
  %45 = phi i64 [ 0, %42 ], [ %50, %49 ]
  %46 = getelementptr inbounds [50 x i8], [50 x i8]* %2, i64 0, i64 %45
  %47 = load i8, i8* %46, align 1, !tbaa !5
  %48 = icmp eq i8 %47, %11
  br i1 %48, label %52, label %49

49:                                               ; preds = %44
  %50 = add nuw nsw i64 %45, 1
  %51 = icmp eq i64 %50, %43
  br i1 %51, label %56, label %44, !llvm.loop !8

52:                                               ; preds = %44, %31, %37
  %53 = phi i64 [ %19, %37 ], [ %19, %31 ], [ %45, %44 ]
  %54 = trunc i64 %53 to i32
  %55 = call i32 (i8*, ...) @printf(i8* nonnull dereferenceable(1) getelementptr inbounds ([3 x i8], [3 x i8]* @.str.1, i64 0, i64 0), i32 %54)
  br label %56

56:                                               ; preds = %49, %34, %40, %0, %52
  call void @llvm.lifetime.end.p0i8(i64 50, i8* nonnull %4) #4
  call void @llvm.lifetime.end.p0i8(i64 50, i8* nonnull %3) #4
  ret i32 0
}

; Function Attrs: argmemonly mustprogress nofree nosync nounwind willreturn
declare void @llvm.lifetime.start.p0i8(i64 immarg, i8* nocapture) #1

; Function Attrs: nofree nounwind
declare noundef i32 @__isoc99_scanf(i8* nocapture noundef readonly, ...) local_unnamed_addr #2

; Function Attrs: argmemonly mustprogress nofree nounwind readonly willreturn
declare i64 @strlen(i8* nocapture) local_unnamed_addr #3

; Function Attrs: nofree nounwind
declare noundef i32 @printf(i8* nocapture noundef readonly, ...) local_unnamed_addr #2

; Function Attrs: argmemonly mustprogress nofree nosync nounwind willreturn
declare void @llvm.lifetime.end.p0i8(i64 immarg, i8* nocapture) #1


!llvm.module.flags = !{!0, !1, !2, !3}
!llvm.ident = !{!4}

!0 = !{i32 1, !"wchar_size", i32 4}
!1 = !{i32 7, !"PIC Level", i32 2}
!2 = !{i32 7, !"PIE Level", i32 2}
!3 = !{i32 7, !"uwtable", i32 1}
!4 = !{!"clang version 13.0.0"}
!5 = !{!6, !6, i64 0}
!6 = !{!"omnipotent char", !7, i64 0}
!7 = !{!"Simple C/C++ TBAA"}
!8 = distinct !{!8, !9}
!9 = !{!"llvm.loop.mustprogress"}
!10 = distinct !{!10, !9}
